target datalayout = "e-m:e-p270:32:32-p271:32:32-p272:64:64-i64:64-i128:128-f80:128-n8:16:32:64-S128"
target triple = "x86_64-pc-linux-gnu"

@.str.68 = private unnamed_addr constant [50 x i8] c"%s reconstructs full backups from incrementals.\0A\0A\00", align 1
@.str.69 = private unnamed_addr constant [8 x i8] c"Usage:\0A\00", align 1
@.str.70 = private unnamed_addr constant [31 x i8] c"  %s [OPTION]... DIRECTORY...\0A\00", align 1
@.str.71 = private unnamed_addr constant [11 x i8] c"\0AOptions:\0A\00", align 1
@.str.72 = private unnamed_addr constant [63 x i8] c"  -d, --debug               generate lots of debugging output\0A\00", align 1
@.str.73 = private unnamed_addr constant [57 x i8] c"  -n, --dry-run             do not actually do anything\0A\00", align 1
@.str.74 = private unnamed_addr constant [82 x i8] c"  -N, --no-sync             do not wait for changes to be written safely to disk\0A\00", align 1
@.str.75 = private unnamed_addr constant [46 x i8] c"  -o, --output=DIRECTORY    output directory\0A\00", align 1
@.str.76 = private unnamed_addr constant [110 x i8] c"  -T, --tablespace-mapping=OLDDIR=NEWDIR\0A                            relocate tablespace in OLDDIR to NEWDIR\0A\00", align 1
@.str.77 = private unnamed_addr constant [70 x i8] c"      --clone               clone (reflink) files instead of copying\0A\00", align 1
@.str.78 = private unnamed_addr constant [50 x i8] c"      --copy                copy files (default)\0A\00", align 1
@.str.79 = private unnamed_addr constant [70 x i8] c"      --copy-file-range     copy using copy_file_range() system call\0A\00", align 1
@.str.80 = private unnamed_addr constant [126 x i8] c"      --manifest-checksums=SHA{224,256,384,512}|CRC32C|NONE\0A                            use algorithm for manifest checksums\0A\00", align 1
@.str.81 = private unnamed_addr constant [68 x i8] c"      --no-manifest         suppress generation of backup manifest\0A\00", align 1
@.str.82 = private unnamed_addr constant [66 x i8] c"      --sync-method=METHOD  set method for syncing files to disk\0A\00", align 1
@.str.83 = private unnamed_addr constant [67 x i8] c"  -V, --version             output version information, then exit\0A\00", align 1
@.str.84 = private unnamed_addr constant [55 x i8] c"  -?, --help                show this help, then exit\0A\00", align 1
@.str.85 = private unnamed_addr constant [23 x i8] c"\0AReport bugs to <%s>.\0A\00", align 1
@.str.86 = private unnamed_addr constant [32 x i8] c"pgsql-bugs@lists.postgresql.org\00", align 1
@.str.87 = private unnamed_addr constant [20 x i8] c"%s home page: <%s>\0A\00", align 1
@.str.88 = private unnamed_addr constant [11 x i8] c"PostgreSQL\00", align 1
@.str.89 = private unnamed_addr constant [28 x i8] c"https://www.postgresql.org/\00", align 1

; Function Attrs: nounwind uwtable
define internal void @help(ptr noundef %0) #0 {
  %2 = alloca ptr, align 8
  store ptr %0, ptr %2, align 8
  %3 = load ptr, ptr %2, align 8
  %4 = call i32 (ptr, ...) @pg_printf(ptr noundef @.str.68, ptr noundef %3)
  %5 = call i32 (ptr, ...) @pg_printf(ptr noundef @.str.69)
  %6 = load ptr, ptr %2, align 8
  %7 = call i32 (ptr, ...) @pg_printf(ptr noundef @.str.70, ptr noundef %6)
  %8 = call i32 (ptr, ...) @pg_printf(ptr noundef @.str.71)
  %9 = call i32 (ptr, ...) @pg_printf(ptr noundef @.str.72)
  %10 = call i32 (ptr, ...) @pg_printf(ptr noundef @.str.73)
  %11 = call i32 (ptr, ...) @pg_printf(ptr noundef @.str.74)
  %12 = call i32 (ptr, ...) @pg_printf(ptr noundef @.str.75)
  %13 = call i32 (ptr, ...) @pg_printf(ptr noundef @.str.76)
  %14 = call i32 (ptr, ...) @pg_printf(ptr noundef @.str.77)
  %15 = call i32 (ptr, ...) @pg_printf(ptr noundef @.str.78)
  %16 = call i32 (ptr, ...) @pg_printf(ptr noundef @.str.79)
  %17 = call i32 (ptr, ...) @pg_printf(ptr noundef @.str.80)
  %18 = call i32 (ptr, ...) @pg_printf(ptr noundef @.str.81)
  %19 = call i32 (ptr, ...) @pg_printf(ptr noundef @.str.82)
  %20 = call i32 (ptr, ...) @pg_printf(ptr noundef @.str.83)
  %21 = call i32 (ptr, ...) @pg_printf(ptr noundef @.str.84)
  %22 = call i32 (ptr, ...) @pg_printf(ptr noundef @.str.85, ptr noundef @.str.86)
  %23 = call i32 (ptr, ...) @pg_printf(ptr noundef @.str.87, ptr noundef @.str.88, ptr noundef @.str.89)
  ret void
}