; Function Attrs: nounwind uwtable
define internal void @help(ptr noundef %0) #3 {
  %2 = tail call i32 (ptr, ...) @pg_printf(ptr noundef nonnull @.str.68, ptr noundef %0) #12
  %3 = tail call i32 (ptr, ...) @pg_printf(ptr noundef nonnull @.str.69) #12
  %4 = tail call i32 (ptr, ...) @pg_printf(ptr noundef nonnull @.str.70, ptr noundef %0) #12
  %5 = tail call i32 (ptr, ...) @pg_printf(ptr noundef nonnull @.str.71) #12
  %6 = tail call i32 (ptr, ...) @pg_printf(ptr noundef nonnull @.str.72) #12
  %7 = tail call i32 (ptr, ...) @pg_printf(ptr noundef nonnull @.str.73) #12
  %8 = tail call i32 (ptr, ...) @pg_printf(ptr noundef nonnull @.str.74) #12
  %9 = tail call i32 (ptr, ...) @pg_printf(ptr noundef nonnull @.str.75) #12
  %10 = tail call i32 (ptr, ...) @pg_printf(ptr noundef nonnull @.str.76) #12
  %11 = tail call i32 (ptr, ...) @pg_printf(ptr noundef nonnull @.str.77) #12
  %12 = tail call i32 (ptr, ...) @pg_printf(ptr noundef nonnull @.str.78) #12
  %13 = tail call i32 (ptr, ...) @pg_printf(ptr noundef nonnull @.str.79) #12
  %14 = tail call i32 (ptr, ...) @pg_printf(ptr noundef nonnull @.str.80) #12
  %15 = tail call i32 (ptr, ...) @pg_printf(ptr noundef nonnull @.str.81) #12
  %16 = tail call i32 (ptr, ...) @pg_printf(ptr noundef nonnull @.str.82) #12
  %17 = tail call i32 (ptr, ...) @pg_printf(ptr noundef nonnull @.str.83) #12
  %18 = tail call i32 (ptr, ...) @pg_printf(ptr noundef nonnull @.str.84) #12
  %19 = tail call i32 (ptr, ...) @pg_printf(ptr noundef nonnull @.str.85, ptr noundef nonnull @.str.86) #12
  %20 = tail call i32 (ptr, ...) @pg_printf(ptr noundef nonnull @.str.87, ptr noundef nonnull @.str.88, ptr noundef nonnull @.str.89) #12
  ret void
}